target datalayout = "e-m:e-p270:32:32-p271:32:32-p272:64:64-i64:64-i128:128-f80:128-n8:16:32:64-S128"
target triple = "x86_64-pc-linux-gnu"

%"class.nanogui::ColorWheel" = type { %"class.nanogui::Widget.base", float, float, float, i32, %"class.std::function" }
%"class.nanogui::Widget.base" = type <{ %"class.nanogui::Object.base", [4 x i8], ptr, %"class.nanogui::ref", %"class.nanogui::ref.0", %"struct.nanogui::Array", %"struct.nanogui::Array", %"struct.nanogui::Array", %"class.std::vector", i8, i8, i8, i8, [4 x i8], %"class.std::__cxx11::basic_string", i32, float, i32 }>
%"class.nanogui::Object.base" = type <{ ptr, %"struct.std::atomic" }>
%"struct.std::atomic" = type { %"struct.std::__atomic_base" }
%"struct.std::__atomic_base" = type { i32 }
%"class.nanogui::ref" = type { ptr }
%"class.nanogui::ref.0" = type { ptr }
%"struct.nanogui::Array" = type { [2 x i32] }
%"class.std::vector" = type { %"struct.std::_Vector_base" }
%"struct.std::_Vector_base" = type { %"struct.std::_Vector_base<nanogui::Widget *, std::allocator<nanogui::Widget *>>::_Vector_impl" }
%"struct.std::_Vector_base<nanogui::Widget *, std::allocator<nanogui::Widget *>>::_Vector_impl" = type { %"struct.std::_Vector_base<nanogui::Widget *, std::allocator<nanogui::Widget *>>::_Vector_impl_data" }
%"struct.std::_Vector_base<nanogui::Widget *, std::allocator<nanogui::Widget *>>::_Vector_impl_data" = type { ptr, ptr, ptr }
%"class.std::__cxx11::basic_string" = type { %"struct.std::__cxx11::basic_string<char>::_Alloc_hider", i64, %union.anon }
%"struct.std::__cxx11::basic_string<char>::_Alloc_hider" = type { ptr }
%union.anon = type { i64, [8 x i8] }
%"class.std::function" = type { %"class.std::_Function_base", ptr }
%"class.std::_Function_base" = type { %"union.std::_Any_data", ptr }
%"union.std::_Any_data" = type { %"union.std::_Nocopy_types" }
%"union.std::_Nocopy_types" = type { { i64, i64 } }
%"class.nanogui::Widget" = type <{ %"class.nanogui::Object.base", [4 x i8], ptr, %"class.nanogui::ref", %"class.nanogui::ref.0", %"struct.nanogui::Array", %"struct.nanogui::Array", %"struct.nanogui::Array", %"class.std::vector", i8, i8, i8, i8, [4 x i8], %"class.std::__cxx11::basic_string", i32, float, i32, [4 x i8] }>

; Function Attrs: mustprogress uwtable
define hidden noundef zeroext i1 @_ZN7nanogui10ColorWheel18mouse_button_eventERKNS_5ArrayIiLm2EEEibi(ptr noundef nonnull align 8 dereferenceable(192) %0, ptr noundef nonnull align 4 dereferenceable(8) %1, i32 noundef %2, i1 noundef zeroext %3, i32 noundef %4) unnamed_addr #0 align 2 {
  %6 = alloca i1, align 1
  %7 = alloca ptr, align 8
  %8 = alloca ptr, align 8
  %9 = alloca i32, align 4
  %10 = alloca i8, align 1
  %11 = alloca i32, align 4
  store ptr %0, ptr %7, align 8
  store ptr %1, ptr %8, align 8
  store i32 %2, ptr %9, align 4
  %12 = zext i1 %3 to i8
  store i8 %12, ptr %10, align 1
  store i32 %4, ptr %11, align 4
  %13 = load ptr, ptr %7, align 8
  %14 = load ptr, ptr %8, align 8
  %15 = load i32, ptr %9, align 4
  %16 = load i8, ptr %10, align 1
  %17 = trunc i8 %16 to i1
  %18 = load i32, ptr %11, align 4
  %19 = call noundef zeroext i1 @_ZN7nanogui6Widget18mouse_button_eventERKNS_5ArrayIiLm2EEEibi(ptr noundef nonnull align 8 dereferenceable(140) %13, ptr noundef nonnull align 4 dereferenceable(8) %14, i32 noundef %15, i1 noundef zeroext %17, i32 noundef %18)
  %20 = getelementptr inbounds %"class.nanogui::Widget", ptr %13, i32 0, i32 10
  %21 = load i8, ptr %20, align 1
  %22 = trunc i8 %21 to i1
  br i1 %22, label %23, label %26

23:                                               ; preds = %5
  %24 = load i32, ptr %9, align 4
  %25 = icmp ne i32 %24, 0
  br i1 %25, label %26, label %27

26:                                               ; preds = %23, %5
  store i1 false, ptr %6, align 1
  br label %39

27:                                               ; preds = %23
  %28 = load i8, ptr %10, align 1
  %29 = trunc i8 %28 to i1
  br i1 %29, label %30, label %37

30:                                               ; preds = %27
  %31 = load ptr, ptr %8, align 8
  %32 = call noundef i32 @_ZN7nanogui10ColorWheel15adjust_positionERKNS_5ArrayIiLm2EEENS0_6RegionE(ptr noundef nonnull align 8 dereferenceable(192) %13, ptr noundef nonnull align 4 dereferenceable(8) %31, i32 noundef 3)
  %33 = getelementptr inbounds %"class.nanogui::ColorWheel", ptr %13, i32 0, i32 4
  store i32 %32, ptr %33, align 8
  %34 = getelementptr inbounds %"class.nanogui::ColorWheel", ptr %13, i32 0, i32 4
  %35 = load i32, ptr %34, align 8
  %36 = icmp ne i32 %35, 0
  store i1 %36, ptr %6, align 1
  br label %39

37:                                               ; preds = %27
  %38 = getelementptr inbounds %"class.nanogui::ColorWheel", ptr %13, i32 0, i32 4
  store i32 0, ptr %38, align 8
  store i1 true, ptr %6, align 1
  br label %39

39:                                               ; preds = %37, %30, %26
  %40 = load i1, ptr %6, align 1
  ret i1 %40
}