; Function Attrs: mustprogress uwtable
define hidden noundef zeroext i1 @_ZN7nanogui10ColorWheel18mouse_button_eventERKNS_5ArrayIiLm2EEEibi(ptr noundef nonnull align 8 dereferenceable(192) %0, ptr noundef nonnull align 4 dereferenceable(8) %1, i32 noundef %2, i1 noundef zeroext %3, i32 noundef %4) unnamed_addr #0 align 2 {
  %6 = tail call noundef zeroext i1 @_ZN7nanogui6Widget18mouse_button_eventERKNS_5ArrayIiLm2EEEibi(ptr noundef nonnull align 8 dereferenceable(140) %0, ptr noundef nonnull align 4 dereferenceable(8) %1, i32 noundef %2, i1 noundef zeroext %3, i32 noundef %4)
  %7 = getelementptr inbounds i8, ptr %0, i64 89
  %8 = load i8, ptr %7, align 1
  %9 = and i8 %8, 1
  %.not9 = icmp eq i8 %9, 0
  %10 = icmp ne i32 %2, 0
  %or.cond = or i1 %10, %.not9
  br i1 %or.cond, label %18, label %11

11:                                               ; preds = %5
  br i1 %3, label %12, label %16

12:                                               ; preds = %11
  %13 = tail call noundef i32 @_ZN7nanogui10ColorWheel15adjust_positionERKNS_5ArrayIiLm2EEENS0_6RegionE(ptr noundef nonnull align 8 dereferenceable(192) %0, ptr noundef nonnull align 4 dereferenceable(8) %1, i32 noundef 3), !range !9
  %14 = getelementptr inbounds i8, ptr %0, i64 152
  store i32 %13, ptr %14, align 8
  %15 = icmp ne i32 %13, 0
  br label %18

16:                                               ; preds = %11
  %17 = getelementptr inbounds i8, ptr %0, i64 152
  store i32 0, ptr %17, align 8
  br label %18

18:                                               ; preds = %5, %16, %12
  %.0 = phi i1 [ %15, %12 ], [ true, %16 ], [ false, %5 ]
  ret i1 %.0
}